target datalayout = "e-m:e-p270:32:32-p271:32:32-p272:64:64-i64:64-i128:128-f80:128-n8:16:32:64-S128"
target triple = "x86_64-pc-linux-gnu"

%struct._value_string_ext = type { ptr, i32, i32, ptr, ptr }
%struct._dcerpc_info = type { ptr, i32, i64, i8, i8, i8, i32, i32, i32, i32, i32, i32, i32, i32, ptr, ptr, ptr, ptr, %struct.anon }
%struct.anon = type { i8, ptr, ptr, ptr, i8 }
%struct._packet_info = type { ptr, ptr, i32, i32, %struct.nstime_t, %struct.nstime_t, %struct.nstime_t, i8, ptr, ptr, ptr, ptr, %struct._address, %struct._address, %struct._address, %struct._address, %struct._address, %struct._address, i32, ptr, i8, [3 x i8], %struct.anon.0, i32, i32, i32, i32, ptr, i8, ptr, ptr, i16, i16, i32, i32, i16, i32, i32, ptr, ptr, ptr, i8, i8, i16, i16, i16, i32, i16, i16, ptr, ptr, ptr, ptr, ptr, i32, i32 }
%struct.nstime_t = type { i64, i32 }
%struct._address = type { i32, i32, ptr, ptr }
%struct.anon.0 = type { i8, [3 x i8] }

@hf_error_st = internal global i32 0, align 4
@.str.346 = private unnamed_addr constant [3 x i8] c"%u\00", align 1
@dce_error_vals_ext = external global %struct._value_string_ext, align 8
@.str.373 = private unnamed_addr constant [10 x i8] c"%s st:%s \00", align 1
@.str.374 = private unnamed_addr constant [17 x i8] c"SetContext reply\00", align 1
@.str.375 = private unnamed_addr constant [8 x i8] c" st:%s \00", align 1

; Function Attrs: null_pointer_is_valid sspstrong uwtable
define internal i32 @fileexp_dissect_setcontext_resp(ptr noundef %0, i32 noundef %1, ptr noundef %2, ptr noundef %3, ptr noundef %4, ptr noundef %5) #0 {
  %7 = alloca i32, align 4
  %8 = alloca ptr, align 8
  %9 = alloca i32, align 4
  %10 = alloca ptr, align 8
  %11 = alloca ptr, align 8
  %12 = alloca ptr, align 8
  %13 = alloca ptr, align 8
  %14 = alloca i32, align 4
  %15 = alloca ptr, align 8
  store ptr %0, ptr %8, align 8
  store i32 %1, ptr %9, align 4
  store ptr %2, ptr %10, align 8
  store ptr %3, ptr %11, align 8
  store ptr %4, ptr %12, align 8
  store ptr %5, ptr %13, align 8
  %16 = load ptr, ptr %12, align 8
  %17 = getelementptr inbounds nuw %struct._dcerpc_info, ptr %16, i32 0, i32 4
  %18 = load i8, ptr %17, align 1, !range !6, !noundef !7
  %19 = trunc i8 %18 to i1
  br i1 %19, label %20, label %22

20:                                               ; preds = %6
  %21 = load i32, ptr %9, align 4
  store i32 %21, ptr %7, align 4
  br label %47

22:                                               ; preds = %6
  call void @llvm.lifetime.start.p0(i64 4, ptr %14) #4
  call void @llvm.lifetime.start.p0(i64 8, ptr %15) #4
  %23 = load ptr, ptr %8, align 8
  %24 = load i32, ptr %9, align 4
  %25 = load ptr, ptr %10, align 8
  %26 = load ptr, ptr %11, align 8
  %27 = load ptr, ptr %12, align 8
  %28 = load ptr, ptr %13, align 8
  %29 = load i32, ptr @hf_error_st, align 4
  %30 = call i32 @dissect_ndr_uint32(ptr noundef %23, i32 noundef %24, ptr noundef %25, ptr noundef %26, ptr noundef %27, ptr noundef %28, i32 noundef %29, ptr noundef %14)
  store i32 %30, ptr %9, align 4
  %31 = load i32, ptr %14, align 4
  %32 = call ptr @val_to_str_ext(i32 noundef %31, ptr noundef @dce_error_vals_ext, ptr noundef @.str.346)
  store ptr %32, ptr %15, align 8
  %33 = load i32, ptr %14, align 4
  %34 = icmp ne i32 %33, 0
  br i1 %34, label %35, label %40

35:                                               ; preds = %22
  %36 = load ptr, ptr %10, align 8
  %37 = getelementptr inbounds nuw %struct._packet_info, ptr %36, i32 0, i32 1
  %38 = load ptr, ptr %37, align 8
  %39 = load ptr, ptr %15, align 8
  call void (ptr, i32, ptr, ...) @col_add_fstr(ptr noundef %38, i32 noundef 25, ptr noundef @.str.373, ptr noundef @.str.374, ptr noundef %39)
  br label %45

40:                                               ; preds = %22
  %41 = load ptr, ptr %10, align 8
  %42 = getelementptr inbounds nuw %struct._packet_info, ptr %41, i32 0, i32 1
  %43 = load ptr, ptr %42, align 8
  %44 = load ptr, ptr %15, align 8
  call void (ptr, i32, ptr, ...) @col_append_fstr(ptr noundef %43, i32 noundef 25, ptr noundef @.str.375, ptr noundef %44)
  br label %45

45:                                               ; preds = %40, %35
  call void @llvm.lifetime.end.p0(i64 8, ptr %15) #4
  call void @llvm.lifetime.end.p0(i64 4, ptr %14) #4
  %46 = load i32, ptr %9, align 4
  store i32 %46, ptr %7, align 4
  br label %47

47:                                               ; preds = %45, %20
  %48 = load i32, ptr %7, align 4
  ret i32 %48
}